target datalayout = "e-m:e-p270:32:32-p271:32:32-p272:64:64-i64:64-i128:128-f80:128-n8:16:32:64-S128"
target triple = "x86_64-pc-linux-gnu"

%"struct.pkpy::Str" = type { i32, i8, ptr, [16 x i8] }

; Function Attrs: mustprogress nounwind uwtable
define linkonce_odr noundef zeroext i1 @_ZNK4pkpy3Str10is_inlinedEv(ptr noundef nonnull align 8 dereferenceable(32) %0) #5 comdat align 2 {
  %2 = alloca ptr, align 8
  store ptr %0, ptr %2, align 8
  %3 = load ptr, ptr %2, align 8
  %4 = getelementptr inbounds %"struct.pkpy::Str", ptr %3, i32 0, i32 2
  %5 = load ptr, ptr %4, align 8
  %6 = getelementptr inbounds %"struct.pkpy::Str", ptr %3, i32 0, i32 3
  %7 = getelementptr inbounds [16 x i8], ptr %6, i64 0, i64 0
  %8 = icmp eq ptr %5, %7
  ret i1 %8
}

; Function Attrs: mustprogress uwtable
define void @_ZN4pkpy3StrC2EOS0_(ptr noundef nonnull align 8 dereferenceable(32) %0, ptr noundef nonnull align 8 dereferenceable(32) %1) unnamed_addr #4 align 2 {
  %3 = alloca ptr, align 8
  %4 = alloca ptr, align 8
  %5 = alloca i32, align 4
  store ptr %0, ptr %3, align 8
  store ptr %1, ptr %4, align 8
  %6 = load ptr, ptr %3, align 8
  %7 = getelementptr inbounds %"struct.pkpy::Str", ptr %6, i32 0, i32 0
  %8 = load ptr, ptr %4, align 8
  %9 = getelementptr inbounds %"struct.pkpy::Str", ptr %8, i32 0, i32 0
  %10 = load i32, ptr %9, align 8
  store i32 %10, ptr %7, align 8
  %11 = getelementptr inbounds %"struct.pkpy::Str", ptr %6, i32 0, i32 1
  %12 = load ptr, ptr %4, align 8
  %13 = getelementptr inbounds %"struct.pkpy::Str", ptr %12, i32 0, i32 1
  %14 = load i8, ptr %13, align 4
  %15 = trunc i8 %14 to i1
  %16 = zext i1 %15 to i8
  store i8 %16, ptr %11, align 4
  %17 = load ptr, ptr %4, align 8
  %18 = call noundef zeroext i1 @_ZNK4pkpy3Str10is_inlinedEv(ptr noundef nonnull align 8 dereferenceable(32) %17)
  br i1 %18, label %19, label %49

19:                                               ; preds = %2
  %20 = getelementptr inbounds %"struct.pkpy::Str", ptr %6, i32 0, i32 3
  %21 = getelementptr inbounds [16 x i8], ptr %20, i64 0, i64 0
  %22 = getelementptr inbounds %"struct.pkpy::Str", ptr %6, i32 0, i32 2
  store ptr %21, ptr %22, align 8
  store i32 0, ptr %5, align 4
  br label %23

23:                                               ; preds = %39, %19
  %24 = load i32, ptr %5, align 4
  %25 = getelementptr inbounds %"struct.pkpy::Str", ptr %6, i32 0, i32 0
  %26 = load i32, ptr %25, align 8
  %27 = icmp slt i32 %24, %26
  br i1 %27, label %28, label %42

28:                                               ; preds = %23
  %29 = load ptr, ptr %4, align 8
  %30 = getelementptr inbounds %"struct.pkpy::Str", ptr %29, i32 0, i32 3
  %31 = load i32, ptr %5, align 4
  %32 = sext i32 %31 to i64
  %33 = getelementptr inbounds [16 x i8], ptr %30, i64 0, i64 %32
  %34 = load i8, ptr %33, align 1
  %35 = getelementptr inbounds %"struct.pkpy::Str", ptr %6, i32 0, i32 3
  %36 = load i32, ptr %5, align 4
  %37 = sext i32 %36 to i64
  %38 = getelementptr inbounds [16 x i8], ptr %35, i64 0, i64 %37
  store i8 %34, ptr %38, align 1
  br label %39

39:                                               ; preds = %28
  %40 = load i32, ptr %5, align 4
  %41 = add nsw i32 %40, 1
  store i32 %41, ptr %5, align 4
  br label %23, !llvm.loop !10

42:                                               ; preds = %23
  %43 = getelementptr inbounds %"struct.pkpy::Str", ptr %6, i32 0, i32 2
  %44 = load ptr, ptr %43, align 8
  %45 = getelementptr inbounds %"struct.pkpy::Str", ptr %6, i32 0, i32 0
  %46 = load i32, ptr %45, align 8
  %47 = sext i32 %46 to i64
  %48 = getelementptr inbounds i8, ptr %44, i64 %47
  store i8 0, ptr %48, align 1
  br label %65

49:                                               ; preds = %2
  %50 = load ptr, ptr %4, align 8
  %51 = getelementptr inbounds %"struct.pkpy::Str", ptr %50, i32 0, i32 2
  %52 = load ptr, ptr %51, align 8
  %53 = getelementptr inbounds %"struct.pkpy::Str", ptr %6, i32 0, i32 2
  store ptr %52, ptr %53, align 8
  %54 = load ptr, ptr %4, align 8
  %55 = getelementptr inbounds %"struct.pkpy::Str", ptr %54, i32 0, i32 3
  %56 = getelementptr inbounds [16 x i8], ptr %55, i64 0, i64 0
  %57 = load ptr, ptr %4, align 8
  %58 = getelementptr inbounds %"struct.pkpy::Str", ptr %57, i32 0, i32 2
  store ptr %56, ptr %58, align 8
  %59 = load ptr, ptr %4, align 8
  %60 = getelementptr inbounds %"struct.pkpy::Str", ptr %59, i32 0, i32 2
  %61 = load ptr, ptr %60, align 8
  %62 = getelementptr inbounds i8, ptr %61, i64 0
  store i8 0, ptr %62, align 1
  %63 = load ptr, ptr %4, align 8
  %64 = getelementptr inbounds %"struct.pkpy::Str", ptr %63, i32 0, i32 0
  store i32 0, ptr %64, align 8
  br label %65

65:                                               ; preds = %49, %42
  ret void
}