; Function Attrs: mustprogress nofree norecurse nosync nounwind memory(argmem: readwrite) uwtable
define void @_ZN4pkpy3StrC2EOS0_(ptr noundef nonnull align 8 dereferenceable(32) %0, ptr noundef nonnull align 8 dereferenceable(32) %1) unnamed_addr #8 align 2 {
  %3 = load i32, ptr %1, align 8
  store i32 %3, ptr %0, align 8
  %4 = getelementptr inbounds i8, ptr %0, i64 4
  %5 = getelementptr inbounds i8, ptr %1, i64 4
  %6 = load i8, ptr %5, align 4
  %7 = and i8 %6, 1
  store i8 %7, ptr %4, align 4
  %8 = getelementptr inbounds i8, ptr %1, i64 8
  %9 = load ptr, ptr %8, align 8
  %10 = getelementptr inbounds i8, ptr %1, i64 16
  %11 = icmp eq ptr %9, %10
  br i1 %11, label %12, label %21

12:                                               ; preds = %2
  %13 = getelementptr inbounds i8, ptr %0, i64 16
  %14 = getelementptr inbounds i8, ptr %0, i64 8
  store ptr %13, ptr %14, align 8
  %15 = icmp sgt i32 %3, 0
  br i1 %15, label %.lr.ph.preheader, label %._crit_edge

.lr.ph.preheader:                                 ; preds = %12
  %wide.trip.count = zext nneg i32 %3 to i64
  br label %.lr.ph

.lr.ph:                                           ; preds = %.lr.ph.preheader, %.lr.ph
  %indvars.iv = phi i64 [ 0, %.lr.ph.preheader ], [ %indvars.iv.next, %.lr.ph ]
  %16 = getelementptr inbounds [16 x i8], ptr %10, i64 0, i64 %indvars.iv
  %17 = load i8, ptr %16, align 1
  %18 = getelementptr inbounds [16 x i8], ptr %13, i64 0, i64 %indvars.iv
  store i8 %17, ptr %18, align 1
  %indvars.iv.next = add nuw nsw i64 %indvars.iv, 1
  %exitcond.not = icmp eq i64 %indvars.iv.next, %wide.trip.count
  br i1 %exitcond.not, label %._crit_edge, label %.lr.ph, !llvm.loop !12

._crit_edge:                                      ; preds = %.lr.ph, %12
  %19 = sext i32 %3 to i64
  %20 = getelementptr inbounds i8, ptr %13, i64 %19
  store i8 0, ptr %20, align 1
  br label %23

21:                                               ; preds = %2
  %22 = getelementptr inbounds i8, ptr %0, i64 8
  store ptr %9, ptr %22, align 8
  store ptr %10, ptr %8, align 8
  store i8 0, ptr %10, align 8
  store i32 0, ptr %1, align 8
  br label %23

23:                                               ; preds = %21, %._crit_edge
  ret void
}